(lp0
(dp1
Vdomain
p2
V1xbet.com
p3
sVsecure
p4
I00
sVvalue
p5
V1
p6
sVexpiry
p7
F1522909293.063386
sVpath
p8
V/
p9
sVhttpOnly
p10
I00
sVname
p11
Vche_n
p12
sa(dp13
Vdomain
p14
V1xbet.com
p15
sVname
p16
Vshow_spring_lottery
p17
sVvalue
p18
g6
sVpath
p19
g9
sVhttpOnly
p20
I00
sVsecure
p21
I00
sa(dp22
Vdomain
p23
V.1xbet.com
p24
sVsecure
p25
I00
sVvalue
p26
Vb
p27
sVexpiry
p28
I1522875090
sVpath
p29
g9
sVhttpOnly
p30
I00
sVname
p31
V_ym_visorc_22934032
p32
sa(dp33
Vdomain
p34
V1xbet.com
p35
sVname
p36
Vright_side
p37
sVvalue
p38
Vright
p39
sVpath
p40
g9
sVhttpOnly
p41
I00
sVsecure
p42
I00
sa(dp43
Vdomain
p44
V1xbet.com
p45
sVsecure
p46
I00
sVvalue
p47
Vtrue
p48
sVexpiry
p49
I1522959689
sVpath
p50
g9
sVhttpOnly
p51
I00
sVname
p52
Vcompleted_user_settings
p53
sa(dp54
Vdomain
p55
V.1xbet.com
p56
sVsecure
p57
I00
sVvalue
p58
g6
sVexpiry
p59
I1522873346
sVpath
p60
g9
sVhttpOnly
p61
I00
sVname
p62
V_gat
p63
sa(dp64
Vdomain
p65
V.1xbet.com
p66
sVsecure
p67
I00
sVvalue
p68
VGA1.2.1148504404.1522873286
p69
sVexpiry
p70
I1522959686
sVpath
p71
g9
sVhttpOnly
p72
I00
sVname
p73
V_gid
p74
sa(dp75
Vdomain
p76
V.1xbet.com
p77
sVsecure
p78
I00
sVvalue
p79
V2
p80
sVexpiry
p81
I1522945290
sVpath
p82
g9
sVhttpOnly
p83
I00
sVname
p84
V_ym_isad
p85
sa(dp86
Vdomain
p87
V1xbet.com
p88
sVsecure
p89
I00
sVvalue
p90
V3
p91
sVexpiry
p92
I1554409285
sVpath
p93
g9
sVhttpOnly
p94
I00
sVname
p95
Vtzo
p96
sa(dp97
Vdomain
p98
V1xbet.com
p99
sVsecure
p100
I00
sVvalue
p101
Vfull
p102
sVexpiry
p103
F1538425284.580387
sVpath
p104
g9
sVhttpOnly
p105
I00
sVname
p106
VtypeBetNames
p107
sa(dp108
Vdomain
p109
V1xbet.com
p110
sVsecure
p111
I00
sVvalue
p112
V1%2C1%2C1%2C1%2C1%2C1%2C1%2C1
p113
sVexpiry
p114
I1525465289
sVpath
p115
g9
sVhttpOnly
p116
I00
sVname
p117
Vblocks
p118
sa(dp119
Vdomain
p120
V.1xbet.com
p121
sVsecure
p122
I00
sVvalue
p123
VGA1.2.1404024411.1522873286
p124
sVexpiry
p125
I1585945286
sVpath
p126
g9
sVhttpOnly
p127
I00
sVname
p128
V_ga
p129
sa(dp130
Vdomain
p131
V1xbet.com
p132
sVsecure
p133
I00
sVvalue
p134
g6
sVexpiry
p135
F1554409284.580344
sVpath
p136
g9
sVhttpOnly
p137
I00
sVname
p138
Vis_rtl
p139
sa(dp140
Vdomain
p141
V1xbet.com
p142
sVsecure
p143
I00
sVvalue
p144
V1522873284
p145
sVexpiry
p146
F1525465284.58036
sVpath
p147
g9
sVhttpOnly
p148
I00
sVname
p149
Vspring_lottery
p150
sa(dp151
Vdomain
p152
V1xbet.com
p153
sVsecure
p154
I00
sVvalue
p155
Ven
p156
sVexpiry
p157
F1525465292.713705
sVpath
p158
g9
sVhttpOnly
p159
I00
sVname
p160
Vlng
p161
sa(dp162
Vdomain
p163
V1xbet.com
p164
sVname
p165
VSESSION
p166
sVvalue
p167
Vd4bc12914b305cb55d453ab97b43982e
p168
sVpath
p169
g9
sVhttpOnly
p170
I01
sVsecure
p171
I01
sa(dp172
Vdomain
p173
V.1xbet.com
p174
sVsecure
p175
I00
sVvalue
p176
V1522873288435142592
p177
sVexpiry
p178
I1585081288
sVpath
p179
g9
sVhttpOnly
p180
I00
sVname
p181
V_ym_uid
p182
sa(dp183
Vdomain
p184
V1xbet.com
p185
sVsecure
p186
I00
sVvalue
p187
V93d282e6-e13a-6516-73c1-1e5cd9d75350
p188
sVexpiry
p189
I1525465292
sVpath
p190
V/en/line/Ice-Hockey
p191
sVhttpOnly
p192
I00
sVname
p193
Vche_g
p194
sa.